; Function Attrs: mustprogress nofree norecurse nosync nounwind sspstrong willreturn memory(argmem: readwrite) uwtable
define internal range(i64 0, 5) i64 @fun_so_from_utf_32(ptr noundef readonly captures(none) %0, ptr noundef readonly captures(none) %1, i64 %2, ptr noundef writeonly captures(none) %3, i64 %4) #2 {
  %6 = load i8, ptr %0, align 1, !tbaa !6
  switch i8 %6, label %fun_so_from_utf_32be.exit [
    i8 1, label %7
    i8 2, label %70
  ]

7:                                                ; preds = %5
  %8 = getelementptr inbounds nuw i8, ptr %1, i64 1
  %9 = load i8, ptr %8, align 1, !tbaa !6
  %.not.i = icmp eq i8 %9, 0
  br i1 %.not.i, label %10, label %45

10:                                               ; preds = %7
  %11 = getelementptr inbounds nuw i8, ptr %1, i64 2
  %12 = load i8, ptr %11, align 1, !tbaa !6
  %13 = icmp eq i8 %12, 0
  br i1 %13, label %14, label %19

14:                                               ; preds = %10
  %15 = getelementptr inbounds nuw i8, ptr %1, i64 3
  %16 = load i8, ptr %15, align 1, !tbaa !6
  %17 = icmp sgt i8 %16, -1
  br i1 %17, label %18, label %.thread.i

18:                                               ; preds = %14
  store i8 %16, ptr %3, align 1, !tbaa !6
  br label %fun_so_from_utf_32be.exit

19:                                               ; preds = %10
  %20 = icmp ult i8 %12, 8
  br i1 %20, label %..thread_crit_edge.i, label %29

..thread_crit_edge.i:                             ; preds = %19
  %.phi.trans.insert.i = getelementptr inbounds nuw i8, ptr %1, i64 3
  %.pre.i = load i8, ptr %.phi.trans.insert.i, align 1, !tbaa !6
  br label %.thread.i

.thread.i:                                        ; preds = %..thread_crit_edge.i, %14
  %21 = phi i8 [ %.pre.i, %..thread_crit_edge.i ], [ %16, %14 ]
  %22 = getelementptr inbounds nuw i8, ptr %1, i64 3
  %23 = tail call i8 @llvm.fshl.i8(i8 %12, i8 %21, i8 2)
  %24 = or disjoint i8 %23, -64
  store i8 %24, ptr %3, align 1, !tbaa !6
  %25 = load i8, ptr %22, align 1, !tbaa !6
  %26 = and i8 %25, 63
  %27 = or disjoint i8 %26, -128
  %28 = getelementptr inbounds nuw i8, ptr %3, i64 1
  store i8 %27, ptr %28, align 1, !tbaa !6
  br label %fun_so_from_utf_32be.exit

29:                                               ; preds = %19
  %30 = lshr i8 %12, 4
  %31 = or disjoint i8 %30, -32
  store i8 %31, ptr %3, align 1, !tbaa !6
  %32 = load i8, ptr %11, align 1, !tbaa !6
  %33 = shl i8 %32, 2
  %34 = and i8 %33, 60
  %35 = getelementptr inbounds nuw i8, ptr %1, i64 3
  %36 = load i8, ptr %35, align 1, !tbaa !6
  %37 = lshr i8 %36, 6
  %38 = or disjoint i8 %34, %37
  %39 = or disjoint i8 %38, -128
  %40 = getelementptr inbounds nuw i8, ptr %3, i64 1
  store i8 %39, ptr %40, align 1, !tbaa !6
  %41 = load i8, ptr %35, align 1, !tbaa !6
  %42 = and i8 %41, 63
  %43 = or disjoint i8 %42, -128
  %44 = getelementptr inbounds nuw i8, ptr %3, i64 2
  store i8 %43, ptr %44, align 1, !tbaa !6
  br label %fun_so_from_utf_32be.exit

45:                                               ; preds = %7
  %46 = lshr i8 %9, 2
  %47 = or i8 %46, -16
  store i8 %47, ptr %3, align 1, !tbaa !6
  %48 = load i8, ptr %8, align 1, !tbaa !6
  %49 = shl i8 %48, 4
  %50 = and i8 %49, 48
  %51 = getelementptr inbounds nuw i8, ptr %1, i64 2
  %52 = load i8, ptr %51, align 1, !tbaa !6
  %53 = lshr i8 %52, 4
  %54 = or disjoint i8 %50, %53
  %55 = or disjoint i8 %54, -128
  %56 = getelementptr inbounds nuw i8, ptr %3, i64 1
  store i8 %55, ptr %56, align 1, !tbaa !6
  %57 = load i8, ptr %51, align 1, !tbaa !6
  %58 = shl i8 %57, 2
  %59 = and i8 %58, 60
  %60 = getelementptr inbounds nuw i8, ptr %1, i64 3
  %61 = load i8, ptr %60, align 1, !tbaa !6
  %62 = lshr i8 %61, 6
  %63 = or disjoint i8 %59, %62
  %64 = or disjoint i8 %63, -128
  %65 = getelementptr inbounds nuw i8, ptr %3, i64 2
  store i8 %64, ptr %65, align 1, !tbaa !6
  %66 = load i8, ptr %60, align 1, !tbaa !6
  %67 = and i8 %66, 63
  %68 = or disjoint i8 %67, -128
  %69 = getelementptr inbounds nuw i8, ptr %3, i64 3
  store i8 %68, ptr %69, align 1, !tbaa !6
  br label %fun_so_from_utf_32be.exit

70:                                               ; preds = %5
  %71 = getelementptr inbounds nuw i8, ptr %1, i64 2
  %72 = load i8, ptr %71, align 1, !tbaa !6
  %.not.i12 = icmp eq i8 %72, 0
  br i1 %.not.i12, label %73, label %105

73:                                               ; preds = %70
  %74 = getelementptr inbounds nuw i8, ptr %1, i64 1
  %75 = load i8, ptr %74, align 1, !tbaa !6
  %76 = icmp eq i8 %75, 0
  br i1 %76, label %77, label %81

77:                                               ; preds = %73
  %78 = load i8, ptr %1, align 1, !tbaa !6
  %79 = icmp sgt i8 %78, -1
  br i1 %79, label %80, label %.thread.i16

80:                                               ; preds = %77
  store i8 %78, ptr %3, align 1, !tbaa !6
  br label %fun_so_from_utf_32be.exit

81:                                               ; preds = %73
  %82 = icmp ult i8 %75, 8
  br i1 %82, label %..thread_crit_edge.i14, label %90

..thread_crit_edge.i14:                           ; preds = %81
  %.pre.i15 = load i8, ptr %1, align 1, !tbaa !6
  br label %.thread.i16

.thread.i16:                                      ; preds = %..thread_crit_edge.i14, %77
  %83 = phi i8 [ %.pre.i15, %..thread_crit_edge.i14 ], [ %78, %77 ]
  %84 = tail call i8 @llvm.fshl.i8(i8 %75, i8 %83, i8 2)
  %85 = or disjoint i8 %84, -64
  store i8 %85, ptr %3, align 1, !tbaa !6
  %86 = load i8, ptr %1, align 1, !tbaa !6
  %87 = and i8 %86, 63
  %88 = or disjoint i8 %87, -128
  %89 = getelementptr inbounds nuw i8, ptr %3, i64 1
  store i8 %88, ptr %89, align 1, !tbaa !6
  br label %fun_so_from_utf_32be.exit

90:                                               ; preds = %81
  %91 = lshr i8 %75, 4
  %92 = or disjoint i8 %91, -32
  store i8 %92, ptr %3, align 1, !tbaa !6
  %93 = load i8, ptr %74, align 1, !tbaa !6
  %94 = shl i8 %93, 2
  %95 = and i8 %94, 60
  %96 = load i8, ptr %1, align 1, !tbaa !6
  %97 = lshr i8 %96, 6
  %98 = or disjoint i8 %95, %97
  %99 = or disjoint i8 %98, -128
  %100 = getelementptr inbounds nuw i8, ptr %3, i64 1
  store i8 %99, ptr %100, align 1, !tbaa !6
  %101 = load i8, ptr %1, align 1, !tbaa !6
  %102 = and i8 %101, 63
  %103 = or disjoint i8 %102, -128
  %104 = getelementptr inbounds nuw i8, ptr %3, i64 2
  store i8 %103, ptr %104, align 1, !tbaa !6
  br label %fun_so_from_utf_32be.exit

105:                                              ; preds = %70
  %106 = lshr i8 %72, 2
  %107 = or i8 %106, -16
  store i8 %107, ptr %3, align 1, !tbaa !6
  %108 = load i8, ptr %71, align 1, !tbaa !6
  %109 = shl i8 %108, 4
  %110 = and i8 %109, 48
  %111 = getelementptr inbounds nuw i8, ptr %1, i64 1
  %112 = load i8, ptr %111, align 1, !tbaa !6
  %113 = lshr i8 %112, 4
  %114 = or disjoint i8 %110, %113
  %115 = or disjoint i8 %114, -128
  %116 = getelementptr inbounds nuw i8, ptr %3, i64 1
  store i8 %115, ptr %116, align 1, !tbaa !6
  %117 = load i8, ptr %111, align 1, !tbaa !6
  %118 = shl i8 %117, 2
  %119 = and i8 %118, 60
  %120 = load i8, ptr %1, align 1, !tbaa !6
  %121 = lshr i8 %120, 6
  %122 = or disjoint i8 %119, %121
  %123 = or disjoint i8 %122, -128
  %124 = getelementptr inbounds nuw i8, ptr %3, i64 2
  store i8 %123, ptr %124, align 1, !tbaa !6
  %125 = load i8, ptr %1, align 1, !tbaa !6
  %126 = and i8 %125, 63
  %127 = or disjoint i8 %126, -128
  %128 = getelementptr inbounds nuw i8, ptr %3, i64 3
  store i8 %127, ptr %128, align 1, !tbaa !6
  br label %fun_so_from_utf_32be.exit

fun_so_from_utf_32be.exit:                        ; preds = %105, %90, %.thread.i16, %80, %45, %29, %.thread.i, %18, %5
  %.0 = phi i64 [ 0, %5 ], [ 4, %45 ], [ 1, %18 ], [ 2, %.thread.i ], [ 3, %29 ], [ 4, %105 ], [ 1, %80 ], [ 2, %.thread.i16 ], [ 3, %90 ]
  ret i64 %.0
}